ÎÄ¼þ£ºesp8266.c    ±àÒëÆ÷°æ±¾ HGASM 0202 Ò³´Î1


   1  0000              ; Generated by holtek-gcc v3.19, Thu May 05 14:52:41 2022
   2  0000              ; 
   3  0000              ; Configuration:
   4  0000              ;       with long instruction
   5  0000              ;       Multi-ROM, Multi-RAM
   6  0000              ;       bits_per_rom_unit:16
   7  0000              ;       with mp1
   8  0000              ;       with tbhp, address(0x9)
   9  0000              ;          Use tabrd-const
  10  0000              ;       
  11  0000              ; SFR address of long-instruction arch:
  12  0000              ;    mp0 = -1,1,0
  13  0000              ;    mp1 = 4,3,2
  14  0000              ;    mp2 = 14,13,12
  15  0000              ;    tbp = 9,7,8
  16  0000              ;    acc = 5
  17  0000              ;    pcl = 6
  18  0000              ;    status = 10
  19  0000              ;    bp = 11
  20  0000              ;    intc = 16
  21  0000              ;       
  22  0000              ;       
  23  0000              ; use 'tabrdc' instead of 'tabrd'
  24  0000              ;       
  25  0000              
  26  0000              #pragma translator "holtek-gcc 4.6.4" "3.19" "build 20130711"
  27  0000              ; Rebuild 718
  28  0000              
  29  0000              ir equ [2]
  30  0000              mp equ [3]
  31  0000              sbp equ [4]
  32  0000              acc equ [5]
  33  0000              bp equ [11]
  34  0000              tblp equ [7]
  35  0000              tbhp equ [9]
  36  0000              status equ [10]
  37  0000              c equ [10].0
  38  0000              ac equ [10].1
  39  0000              z equ [10].2
  40  0000              ov equ [10].3
  41  0000              cz equ [10].6
  42  0000              sc equ [10].7
  43  0000              intc equ [16]
  44  0000              mduwr0 equ [59h]
  45  0000              mduwr1 equ [5ah]
  46  0000              mduwr2 equ [5bh]
  47  0000              mduwr3 equ [5ch]
  48  0000              mduwr4 equ [5dh]
  49  0000              mduwr5 equ [5eh]
  50  0000              mduwrctrl equ [5fh]
  51  0000              
  52  0000              extern ra:byte
  53  0000              extern rb:byte
  54  0000              extern rc:byte
  55  0000              extern rd:byte
  56  0000              extern re:byte
  57  0000              extern rf:byte
  58  0000              extern rg:byte
  59  0000              extern rh:byte
ÎÄ¼þ£ºesp8266.ASM  ±àÒëÆ÷°æ±¾ HGASM 0202 Ò³´Î2

  60  0000              extern _Crom2Prom:near
  61  0000              extern _Crom2PromNext:near
  62  0000              
  63  0000              RAMBANK 0 @BITDATASEC, @BITDATASEC1
  64  0000              @HCCINIT	.section 'data'
  65  0000              @HCCINIT0	.section 'data'
  66  0000              @BITDATASEC	 .section 'data'
  67  0000              @BITDATASEC1	 .section 'data'
  68  0000              
  69  0000              #pragma debug scope 1 1
  70  0000              	extern __DELAY3:near
  71  0000              	extern __DELAYX3:near
  72  0000              	extern __DELAYX6:near
  73  0000              	extern __DELAYY5:near
  74  0000              	extern __DELAYY3:near
  75  0000              	extern _builtin_holtek_delay_2:byte
  76  0000              public _ESP8266_Clear
  77  0000              #pragma debug scope 2 1

  19  0000              #line 19 "c:\users\ÂäÒ¶\desktop\htproject\down_demo\esp8266.c"
  19  0000              _ESP8266_Clear .section 'code'
  19  0000              _ESP8266_Clear proc
  20  0000              #line 20 "c:\users\ÂäÒ¶\desktop\htproject\down_demo\esp8266.c"
  20  0000  0F80        	mov a,-128
  20  0001  0080     E  	mov _memset_2[4],a
  20  0002  1F00     E  	clr _memset_2[5]
  20  0003  1F00     E  	clr _memset_2[2]
  20  0004  1F00     E  	clr _memset_2[3]
  20  0005  0F00     R  	mov a,low offset _esp8266_buf
  20  0006  0080     E  	mov _memset_2[0],a
  20  0007  0F00     R  	mov a,high offset _esp8266_buf
  20  0008  0080     E  	mov _memset_2[1],a
  20  0009              	fcall _memset
  21  0010              #line 21 "c:\users\ÂäÒ¶\desktop\htproject\down_demo\esp8266.c"
  21  0010  1F00     R  	clr _esp8266_cnt[0]
  21  0011  1F00     R  	clr _esp8266_cnt[1]
  21  0012  0003        	ret
  21  0013              _ESP8266_Clear endp
  21  0013              #line 21 "c:\users\ÂäÒ¶\desktop\htproject\down_demo\esp8266.c"
  21  0013              #pragma debug scope 1 1
  21  0013              public _ESP8266_WaitRecive
  21  0013              #pragma debug scope 3 1
  29  0013              #line 29 "c:\users\ÂäÒ¶\desktop\htproject\down_demo\esp8266.c"
  29  0000              _ESP8266_WaitRecive .section 'code'
  29  0000              _ESP8266_WaitRecive proc
  30  0000              #line 30 "c:\users\ÂäÒ¶\desktop\htproject\down_demo\esp8266.c"
  30  0000  0F00     R  	mov a,low offset _esp8266_buf
  30  0001  0080     E  	mov _strlen_2[0],a
  30  0002  0F00     R  	mov a,high offset _esp8266_buf
  30  0003  0080     E  	mov _strlen_2[1],a
  30  0004              	fcall _strlen
  30  000B  0F01        	mov a,1
  30  000C  0080     E  	mov rc,a
  30  000D  0700     E  	mov a,ra
  30  000E  0500     E  	or a,rb
  30  000F  3D0A        	sz z
  30  0010  2800     R  	jmp _L3
  30  0011              #line 30 "c:\users\ÂäÒ¶\desktop\htproject\down_demo\esp8266.c"
  30  0011  1F00     E  	clr rc
  30  0012              _L3:
ÎÄ¼þ£ºesp8266.c    ±àÒëÆ÷°æ±¾ HGASM 0202 Ò³´Î3

  34  0012              #line 34 "c:\users\ÂäÒ¶\desktop\htproject\down_demo\esp8266.c"
  34  0012  0700     E  	mov a,rc
  34  0013  0003        	ret
  34  0014              _ESP8266_WaitRecive endp
  34  0014              #line 34 "c:\users\ÂäÒ¶\desktop\htproject\down_demo\esp8266.c"
  34  0014              #pragma debug scope 1 1
  34  0014              public _ESP8266_SendCmd
  34  0014              #pragma debug scope 4 1
  42  0014              #line 42 "c:\users\ÂäÒ¶\desktop\htproject\down_demo\esp8266.c"
  42  0000              _ESP8266_SendCmd .section 'code'
  42  0000              _ESP8266_SendCmd proc
  42  0000              public _ESP8266_SendCmd_2
  42  0000  0006[           local _ESP8266_SendCmd_2 db 6 dup(?)	; 4,2
            00
            ]
  42  0006              #pragma debug pointer 42 7 4
  42  0006              #pragma debug pointer 42 7 4
  42  0006              #pragma debug variable 42 4 _ESP8266_SendCmd_2+0 "cmd"
  42  0006              #pragma debug variable 42 4 _ESP8266_SendCmd_2+2 "res"
  45  0006              #line 45 "c:\users\ÂäÒ¶\desktop\htproject\down_demo\esp8266.c"
  45  0000  0700     R  	mov a,_ESP8266_SendCmd_2[0]
  45  0001  0080     E  	mov _send_buff_2[0],a
  45  0002  0700     R  	mov a,_ESP8266_SendCmd_2[1]
  45  0003  0080     E  	mov _send_buff_2[1],a
  45  0004              	fcall _send_buff
  47  000B              #line 47 "c:\users\ÂäÒ¶\desktop\htproject\down_demo\esp8266.c"
  47  000B  0FC9        	mov a,201
  47  000C  0080     R  	mov _ESP8266_SendCmd_2[5],a
  47  000D              _L9:
  47  000D  1780     R  	sdz _ESP8266_SendCmd_2[5]
  47  000E  2800     R  	jmp _LI1
  47  000F  2800     R  	jmp _L17
  47  0010              _LI1:
  49  0010              #line 49 "c:\users\ÂäÒ¶\desktop\htproject\down_demo\esp8266.c"
  49  0010              	fcall _ESP8266_WaitRecive
  49  0017  0080     R  	mov _ESP8266_SendCmd_2[4],a
  49  0018  1080     R  	sz _ESP8266_SendCmd_2[4]
  49  0019  2800     R  	jmp _L13
  51  001A              #line 51 "c:\users\ÂäÒ¶\desktop\htproject\down_demo\esp8266.c"
  51  001A  0700     R  	mov a,_ESP8266_SendCmd_2[2]
  51  001B  0080     E  	mov _strstr_2[2],a
  51  001C  0700     R  	mov a,_ESP8266_SendCmd_2[3]
  51  001D  0080     E  	mov _strstr_2[3],a
  51  001E  0F00     R  	mov a,low offset _esp8266_buf
  51  001F  0080     E  	mov _strstr_2[0],a
  51  0020  0F00     R  	mov a,high offset _esp8266_buf
  51  0021  0080     E  	mov _strstr_2[1],a
  51  0022              	fcall _strstr
  51  0029  0700     E  	mov a,ra
  51  002A  0080     E  	mov _strlen_2[0],a
  51  002B  0700     E  	mov a,rb
  51  002C  0080     E  	mov _strlen_2[1],a
  51  002D              	fcall _strlen
  51  0034  0700     E  	mov a,ra
  51  0035  0500     E  	or a,rb
  51  0036  3D0A        	sz z
  51  0037  2800     R  	jmp _L13
  53  0038              #line 53 "c:\users\ÂäÒ¶\desktop\htproject\down_demo\esp8266.c"
  53  0038              	fcall _ESP8266_Clear
  55  003F              #line 55 "c:\users\ÂäÒ¶\desktop\htproject\down_demo\esp8266.c"
ÎÄ¼þ£ºesp8266.c    ±àÒëÆ÷°æ±¾ HGASM 0202 Ò³´Î4

  55  003F  2800     R  	jmp _L11
  55  0040              _L13:
  59  0040              #line 59 "c:\users\ÂäÒ¶\desktop\htproject\down_demo\esp8266.c"
  59  0040  0F0A        	mov a,10
  59  0041  0080     E  	mov _delay_ms_2[0],a
  59  0042  1F00     E  	clr _delay_ms_2[1]
  59  0043              	fcall _delay_ms
  59  004A  2800     R  	jmp _L9
  59  004B              _L17:
  61  004B              #line 61 "c:\users\ÂäÒ¶\desktop\htproject\down_demo\esp8266.c"
  61  004B  0F01        	mov a,1
  61  004C  0080     R  	mov _ESP8266_SendCmd_2[4],a
  61  004D              _L11:
  62  004D              #line 62 "c:\users\ÂäÒ¶\desktop\htproject\down_demo\esp8266.c"
  62  004D  0700     R  	mov a,_ESP8266_SendCmd_2[4]
  62  004E  0003        	ret
  62  004F              _ESP8266_SendCmd endp
  62  004F              #line 62 "c:\users\ÂäÒ¶\desktop\htproject\down_demo\esp8266.c"
  62  004F              #pragma debug scope 1 1
  62  004F              public _ESP8266_GetIPD
  62  004F              #pragma debug scope 5 1
  72  004F              #line 72 "c:\users\ÂäÒ¶\desktop\htproject\down_demo\esp8266.c"
  72  0000              _ESP8266_GetIPD .section 'code'
  72  0000              _ESP8266_GetIPD proc
  72  0000              public _ESP8266_GetIPD_2
  72  0000  0004[           local _ESP8266_GetIPD_2 db 4 dup(?)	; 4,0
            00
            ]
  72  0004              #pragma debug variable 10 5 _ESP8266_GetIPD_2+0 "timeOut"
  72  0004              #pragma debug pointer 43 7 5
  72  0004              #pragma debug pointer 43 7 5
  72  0004              #pragma debug variable 43 5 _ESP8266_GetIPD_2+2 "topic"
  72  0000              _L23:
  75  0000              #line 75 "c:\users\ÂäÒ¶\desktop\htproject\down_demo\esp8266.c"
  75  0000              	fcall _ESP8266_WaitRecive
  75  0007  0080     E  	mov ra,a
  75  0008  1080     E  	sz ra
  75  0009  2800     R  	jmp _L19
  77  000A              #line 77 "c:\users\ÂäÒ¶\desktop\htproject\down_demo\esp8266.c"
  77  000A  0700     R  	mov a,_ESP8266_GetIPD_2[2]
  77  000B  0080     E  	mov _strstr_2[2],a
  77  000C  0700     R  	mov a,_ESP8266_GetIPD_2[3]
  77  000D  0080     E  	mov _strstr_2[3],a
  77  000E  0F00     R  	mov a,low offset _esp8266_buf
  77  000F  0080     E  	mov _strstr_2[0],a
  77  0010  0F00     R  	mov a,high offset _esp8266_buf
  77  0011  0080     E  	mov _strstr_2[1],a
  77  0012              	fcall _strstr
  77  0019  0700     E  	mov a,ra
  77  001A  0080     R  	mov _ptrIPD[0],a
  77  001B  0700     E  	mov a,rb
  77  001C  0080     R  	mov _ptrIPD[1],a
  78  001D              #line 78 "c:\users\ÂäÒ¶\desktop\htproject\down_demo\esp8266.c"
  78  001D  0700     E  	mov a,ra
  78  001E  0080     E  	mov _strlen_2[0],a
  78  001F  0700     E  	mov a,rb
  78  0020  0080     E  	mov _strlen_2[1],a
  78  0021              	fcall _strlen
  78  0028  0700     E  	mov a,ra
  78  0029  0500     E  	or a,rb
ÎÄ¼þ£ºesp8266.c    ±àÒëÆ÷°æ±¾ HGASM 0202 Ò³´Î5

  78  002A  390A        	snz z
  78  002B  2800     R  	jmp _L20
  78  002C              _L22:
  80  002C              #line 80 "c:\users\ÂäÒ¶\desktop\htproject\down_demo\esp8266.c"
  80  002C  1F00     E  	clr ra
  80  002D  2800     R  	jmp _L21
  80  002E              _L20:
  84  002E              #line 84 "c:\users\ÂäÒ¶\desktop\htproject\down_demo\esp8266.c"
  84  002E  0F2C        	mov a,44
  84  002F  0080     E  	mov _strchr_2[2],a
  84  0030  1F00     E  	clr _strchr_2[3]
  84  0031  0700     R  	mov a,_ptrIPD[0]
  84  0032  0080     E  	mov _strchr_2[0],a
  84  0033  0700     R  	mov a,_ptrIPD[1]
  84  0034  0080     E  	mov _strchr_2[1],a
  84  0035              	fcall _strchr
  85  003C              #line 85 "c:\users\ÂäÒ¶\desktop\htproject\down_demo\esp8266.c"
  85  003C  0700     E  	mov a,rb
  85  003D  0080     E  	mov rc,a
  85  003E  0700     E  	mov a,ra
  85  003F  0B01        	add a,1
  85  0040  0080     E  	mov rb,a
  85  0041  0F00        	mov a,0
  85  0042  1380     E  	adcm a,rc
  85  0043  0700     E  	mov a,rb
  85  0044  0080     R  	mov _ptrIPD[0],a
  85  0045  0700     E  	mov a,rc
  85  0046  0080     R  	mov _ptrIPD[1],a
  86  0047              #line 86 "c:\users\ÂäÒ¶\desktop\htproject\down_demo\esp8266.c"
  86  0047  0F2C        	mov a,44
  86  0048  0080     E  	mov _strchr_2[2],a
  86  0049  1F00     E  	clr _strchr_2[3]
  86  004A  0700     E  	mov a,rb
  86  004B  0080     E  	mov _strchr_2[0],a
  86  004C  0700     E  	mov a,rc
  86  004D  0080     E  	mov _strchr_2[1],a
  86  004E              	fcall _strchr
  86  0055  0700     E  	mov a,ra
  86  0056  0080     R  	mov _ptrIPD[0],a
  86  0057  0700     E  	mov a,rb
  86  0058  0080     R  	mov _ptrIPD[1],a
  87  0059              #line 87 "c:\users\ÂäÒ¶\desktop\htproject\down_demo\esp8266.c"
  87  0059  0700     E  	mov a,ra
  87  005A  0080     E  	mov _strlen_2[0],a
  87  005B  0700     E  	mov a,rb
  87  005C  0080     E  	mov _strlen_2[1],a
  87  005D              	fcall _strlen
  87  0064  0700     E  	mov a,ra
  87  0065  0500     E  	or a,rb
  87  0066  3D0A        	sz z
  87  0067  2800     R  	jmp _L19
  89  0068              #line 89 "c:\users\ÂäÒ¶\desktop\htproject\down_demo\esp8266.c"
  89  0068  1480     R  	inc _ptrIPD[0]
  89  0069  3D0A        	sz z
  89  006A  1480     R  	inc _ptrIPD[1]
  90  006B              #line 90 "c:\users\ÂäÒ¶\desktop\htproject\down_demo\esp8266.c"
  90  006B  0F01        	mov a,1
  90  006C  0080     E  	mov ra,a
  90  006D  2800     R  	jmp _L21
  90  006E              _L19:
ÎÄ¼þ£ºesp8266.c    ±àÒëÆ÷°æ±¾ HGASM 0202 Ò³´Î6

  95  006E              #line 95 "c:\users\ÂäÒ¶\desktop\htproject\down_demo\esp8266.c"
  95  006E  0F05        	mov a,5
  95  006F  0080     E  	mov _delay_ms_2[0],a
  95  0070  1F00     E  	clr _delay_ms_2[1]
  95  0071              	fcall _delay_ms
  96  0078              #line 96 "c:\users\ÂäÒ¶\desktop\htproject\down_demo\esp8266.c"
  96  0078  0FFF        	mov a,255
  96  0079  0300     R  	add a,_ESP8266_GetIPD_2[0]
  96  007A  0080     E  	mov rb,a
  96  007B  0FFF        	mov a,255
  96  007C  1300     R  	adc a,_ESP8266_GetIPD_2[1]
  96  007D  0080     E  	mov rc,a
  96  007E  0700     R  	mov a,_ESP8266_GetIPD_2[0]
  96  007F  0500     R  	or a,_ESP8266_GetIPD_2[1]
  96  0080  3D0A        	sz z
  96  0081  2800     R  	jmp _L22
  96  0082  0700     E  	mov a,rb
  96  0083  0080     R  	mov _ESP8266_GetIPD_2[0],a
  96  0084  0700     E  	mov a,rc
  96  0085  0080     R  	mov _ESP8266_GetIPD_2[1],a
  96  0086  2800     R  	jmp _L23
  96  0087              _L21:
  99  0087              #line 99 "c:\users\ÂäÒ¶\desktop\htproject\down_demo\esp8266.c"
  99  0087  0700     E  	mov a,ra
  99  0088  0003        	ret
  99  0089              _ESP8266_GetIPD endp
  99  0089              #line 99 "c:\users\ÂäÒ¶\desktop\htproject\down_demo\esp8266.c"
  99  0089              #pragma debug scope 1 1
  99  0000              @crom	.section 'crom'
  99  0000              _LC0:
  99  0000              	db 04fh,04bh,00h
  99  0002              @crom	.section 'crom'
  99  0002              _LC1:
  99  0002              	db 041h,054h,0dh,0ah,00h
  99  0004              @crom	.section 'crom'
  99  0004              _LC2:
  99  0004              	db 041h,054h,02bh,043h,057h,04dh,04fh,044h,045h,03dh
  99  0009              	db 031h,0dh,0ah,00h
  99  000B              @crom	.section 'crom'
  99  000B              _LC3:
  99  000B              	db 047h,04fh,054h,020h,049h,050h,00h
  99  000F              @crom	.section 'crom'
  99  000F              _LC4:
  99  000F              	db 041h,054h,02bh,043h,057h,04ah,041h,050h,03dh,022h
  99  0014              	db 069h,050h,068h,06fh,06eh,065h,020h,058h,052h,022h
  99  0019              	db 02ch,022h,031h,032h,033h,034h,035h,036h,037h,038h
  99  001E              	db 022h,0dh,0ah,00h
  99  0020              @crom	.section 'crom'
  99  0020              _LC5:
  99  0020              	db 041h,054h,02bh,04dh,051h,054h,054h,055h,053h,045h
  99  0025              	db 052h,043h,046h,047h,03dh,030h,02ch,031h,02ch,022h
  99  002A              	db 043h,06ch,069h,065h,06eh,049h,064h,022h,02ch,022h
  99  002F              	db 022h,02ch,022h,022h,02ch,030h,02ch,030h,02ch,022h
  99  0034              	db 022h,0dh,0ah,00h
  99  0036              @crom	.section 'crom'
  99  0036              _LC6:
  99  0036              	db 043h,04fh,04eh,04eh,045h,043h,054h,00h
  99  003A              @crom	.section 'crom'
  99  003A              _LC7:
  99  003A              	db 041h,054h,02bh,04dh,051h,054h,054h,043h,04fh,04eh
ÎÄ¼þ£ºesp8266.c    ±àÒëÆ÷°æ±¾ HGASM 0202 Ò³´Î7

  99  003F              	db 04eh,03dh,030h,02ch,022h,031h,031h,031h,02eh,036h
  99  0044              	db 037h,02eh,032h,030h,036h,02eh,032h,034h,032h,022h
  99  0049              	db 02ch,031h,038h,038h,033h,02ch,031h,0dh,0ah,00h
  99  004E              @crom	.section 'crom'
  99  004E              _LC8:
  99  004E              	db 041h,054h,02bh,04dh,051h,054h,054h,053h,055h,042h
  99  0053              	db 03dh,030h,02ch,022h,064h,06fh,077h,06eh,05fh,074h
  99  0058              	db 069h,06dh,065h,022h,02ch,031h,0dh,0ah,00h
  99  005C              @crom	.section 'crom'
  99  005C              _LC9:
  99  005C              	db 041h,054h,02bh,04dh,051h,054h,054h,053h,055h,042h
  99  0061              	db 03dh,030h,02ch,022h,077h,061h,074h,065h,072h,05fh
  99  0066              	db 074h,069h,06dh,065h,022h,02ch,031h,0dh,0ah,00h
  99  006B              @crom	.section 'crom'
  99  006B              _LC10:
  99  006B              	db 041h,054h,02bh,04dh,051h,054h,054h,053h,055h,042h
  99  0070              	db 03dh,030h,02ch,022h,063h,06fh,06eh,06eh,065h,063h
  99  0075              	db 074h,053h,074h,061h,074h,065h,022h,02ch,031h,0dh
  99  007A              	db 0ah,00h
  99  007B              @crom	.section 'crom'
  99  007B              _LC11:
  99  007B              	db 041h,054h,02bh,04dh,051h,054h,054h,053h,055h,042h
  99  0080              	db 03dh,030h,02ch,022h,06dh,075h,073h,069h,063h,022h
  99  0085              	db 02ch,031h,0dh,0ah,00h
  99  0088              @crom	.section 'crom'
  99  0088              _LC12:
  99  0088              	db 041h,054h,02bh,04dh,051h,054h,054h,050h,055h,042h
  99  008D              	db 03dh,030h,02ch,022h,063h,06fh,06eh,06eh,065h,063h
  99  0092              	db 074h,053h,074h,061h,074h,065h,022h,02ch,022h,074h
  99  0097              	db 072h,075h,065h,022h,02ch,031h,02ch,030h,0dh,0ah
  99  009C              	db 00h
  99  009C              public _ESP8266_Init
  99  009C              #pragma debug scope 6 1
 104  009C              #line 104 "c:\users\ÂäÒ¶\desktop\htproject\down_demo\esp8266.c"
 104  0000              _ESP8266_Init .section 'code'
 104  0000              _ESP8266_Init proc
 105  0000              #line 105 "c:\users\ÂäÒ¶\desktop\htproject\down_demo\esp8266.c"
 105  0000              	fcall _ESP8266_Clear
 105  0007              _L28:
 107  0007              #line 107 "c:\users\ÂäÒ¶\desktop\htproject\down_demo\esp8266.c"
 107  0007  0F00     R  	mov a,low offset _LC0
 107  0008  0080     R  	mov _ESP8266_SendCmd_2[2],a
 107  0009  0F00     R  	mov a,high offset _LC0
 107  000A  0080     R  	mov _ESP8266_SendCmd_2[3],a
 107  000B  0F00     R  	mov a,low offset _LC1
 107  000C  0080     R  	mov _ESP8266_SendCmd_2[0],a
 107  000D  0F00     R  	mov a,high offset _LC1
 107  000E  0080     R  	mov _ESP8266_SendCmd_2[1],a
 107  000F              	fcall _ESP8266_SendCmd
 107  0016  0080     E  	mov ra,a
 107  0017  1E00     E  	snz ra
 107  0018  2800     R  	jmp _L30
 108  0019              #line 108 "c:\users\ÂäÒ¶\desktop\htproject\down_demo\esp8266.c"
 108  0019  0FF4        	mov a,-12
 108  001A  0080     E  	mov _delay_ms_2[0],a
 108  001B  0F01        	mov a,1
 108  001C  0080     E  	mov _delay_ms_2[1],a
 108  001D              	fcall _delay_ms
 108  0024  2800     R  	jmp _L28
 108  0025              _L30:
ÎÄ¼þ£ºesp8266.c    ±àÒëÆ÷°æ±¾ HGASM 0202 Ò³´Î8

 112  0025              #line 112 "c:\users\ÂäÒ¶\desktop\htproject\down_demo\esp8266.c"
 112  0025  0F00     R  	mov a,low offset _LC0
 112  0026  0080     R  	mov _ESP8266_SendCmd_2[2],a
 112  0027  0F00     R  	mov a,high offset _LC0
 112  0028  0080     R  	mov _ESP8266_SendCmd_2[3],a
 112  0029  0F00     R  	mov a,low offset _LC2
 112  002A  0080     R  	mov _ESP8266_SendCmd_2[0],a
 112  002B  0F00     R  	mov a,high offset _LC2
 112  002C  0080     R  	mov _ESP8266_SendCmd_2[1],a
 112  002D              	fcall _ESP8266_SendCmd
 112  0034  0080     E  	mov ra,a
 112  0035  1E00     E  	snz ra
 112  0036  2800     R  	jmp _L32
 113  0037              #line 113 "c:\users\ÂäÒ¶\desktop\htproject\down_demo\esp8266.c"
 113  0037  0FF4        	mov a,-12
 113  0038  0080     E  	mov _delay_ms_2[0],a
 113  0039  0F01        	mov a,1
 113  003A  0080     E  	mov _delay_ms_2[1],a
 113  003B              	fcall _delay_ms
 113  0042  2800     R  	jmp _L30
 113  0043              _L32:
 116  0043              #line 116 "c:\users\ÂäÒ¶\desktop\htproject\down_demo\esp8266.c"
 116  0043  0F00     R  	mov a,low offset _LC3
 116  0044  0080     R  	mov _ESP8266_SendCmd_2[2],a
 116  0045  0F00     R  	mov a,high offset _LC3
 116  0046  0080     R  	mov _ESP8266_SendCmd_2[3],a
 116  0047  0F00     R  	mov a,low offset _LC4
 116  0048  0080     R  	mov _ESP8266_SendCmd_2[0],a
 116  0049  0F00     R  	mov a,high offset _LC4
 116  004A  0080     R  	mov _ESP8266_SendCmd_2[1],a
 116  004B              	fcall _ESP8266_SendCmd
 116  0052  0080     E  	mov ra,a
 116  0053  1E00     E  	snz ra
 116  0054  2800     R  	jmp _L34
 117  0055              #line 117 "c:\users\ÂäÒ¶\desktop\htproject\down_demo\esp8266.c"
 117  0055  0FF4        	mov a,-12
 117  0056  0080     E  	mov _delay_ms_2[0],a
 117  0057  0F01        	mov a,1
 117  0058  0080     E  	mov _delay_ms_2[1],a
 117  0059              	fcall _delay_ms
 117  0060  2800     R  	jmp _L32
 117  0061              _L34:
 120  0061              #line 120 "c:\users\ÂäÒ¶\desktop\htproject\down_demo\esp8266.c"
 120  0061  0F00     R  	mov a,low offset _LC0
 120  0062  0080     R  	mov _ESP8266_SendCmd_2[2],a
 120  0063  0F00     R  	mov a,high offset _LC0
 120  0064  0080     R  	mov _ESP8266_SendCmd_2[3],a
 120  0065  0F00     R  	mov a,low offset _LC5
 120  0066  0080     R  	mov _ESP8266_SendCmd_2[0],a
 120  0067  0F00     R  	mov a,high offset _LC5
 120  0068  0080     R  	mov _ESP8266_SendCmd_2[1],a
 120  0069              	fcall _ESP8266_SendCmd
 120  0070  0080     E  	mov ra,a
 120  0071  1E00     E  	snz ra
 120  0072  2800     R  	jmp _L36
 121  0073              #line 121 "c:\users\ÂäÒ¶\desktop\htproject\down_demo\esp8266.c"
 121  0073  0FF4        	mov a,-12
 121  0074  0080     E  	mov _delay_ms_2[0],a
 121  0075  0F01        	mov a,1
 121  0076  0080     E  	mov _delay_ms_2[1],a
ÎÄ¼þ£ºesp8266.c    ±àÒëÆ÷°æ±¾ HGASM 0202 Ò³´Î9

 121  0077              	fcall _delay_ms
 121  007E  2800     R  	jmp _L34
 121  007F              _L36:
 124  007F              #line 124 "c:\users\ÂäÒ¶\desktop\htproject\down_demo\esp8266.c"
 124  007F  0F00     R  	mov a,low offset _LC6
 124  0080  0080     R  	mov _ESP8266_SendCmd_2[2],a
 124  0081  0F00     R  	mov a,high offset _LC6
 124  0082  0080     R  	mov _ESP8266_SendCmd_2[3],a
 124  0083  0F00     R  	mov a,low offset _LC7
 124  0084  0080     R  	mov _ESP8266_SendCmd_2[0],a
 124  0085  0F00     R  	mov a,high offset _LC7
 124  0086  0080     R  	mov _ESP8266_SendCmd_2[1],a
 124  0087              	fcall _ESP8266_SendCmd
 124  008E  0080     E  	mov ra,a
 124  008F  1E00     E  	snz ra
 124  0090  2800     R  	jmp _L38
 125  0091              #line 125 "c:\users\ÂäÒ¶\desktop\htproject\down_demo\esp8266.c"
 125  0091  0FF4        	mov a,-12
 125  0092  0080     E  	mov _delay_ms_2[0],a
 125  0093  0F01        	mov a,1
 125  0094  0080     E  	mov _delay_ms_2[1],a
 125  0095              	fcall _delay_ms
 125  009C  2800     R  	jmp _L36
 125  009D              _L38:
 128  009D              #line 128 "c:\users\ÂäÒ¶\desktop\htproject\down_demo\esp8266.c"
 128  009D  0F00     R  	mov a,low offset _LC0
 128  009E  0080     R  	mov _ESP8266_SendCmd_2[2],a
 128  009F  0F00     R  	mov a,high offset _LC0
 128  00A0  0080     R  	mov _ESP8266_SendCmd_2[3],a
 128  00A1  0F00     R  	mov a,low offset _LC8
 128  00A2  0080     R  	mov _ESP8266_SendCmd_2[0],a
 128  00A3  0F00     R  	mov a,high offset _LC8
 128  00A4  0080     R  	mov _ESP8266_SendCmd_2[1],a
 128  00A5              	fcall _ESP8266_SendCmd
 128  00AC  0080     E  	mov ra,a
 128  00AD  1E00     E  	snz ra
 128  00AE  2800     R  	jmp _L40
 129  00AF              #line 129 "c:\users\ÂäÒ¶\desktop\htproject\down_demo\esp8266.c"
 129  00AF  0FF4        	mov a,-12
 129  00B0  0080     E  	mov _delay_ms_2[0],a
 129  00B1  0F01        	mov a,1
 129  00B2  0080     E  	mov _delay_ms_2[1],a
 129  00B3              	fcall _delay_ms
 129  00BA  2800     R  	jmp _L38
 129  00BB              _L40:
 131  00BB              #line 131 "c:\users\ÂäÒ¶\desktop\htproject\down_demo\esp8266.c"
 131  00BB  0F00     R  	mov a,low offset _LC0
 131  00BC  0080     R  	mov _ESP8266_SendCmd_2[2],a
 131  00BD  0F00     R  	mov a,high offset _LC0
 131  00BE  0080     R  	mov _ESP8266_SendCmd_2[3],a
 131  00BF  0F00     R  	mov a,low offset _LC9
 131  00C0  0080     R  	mov _ESP8266_SendCmd_2[0],a
 131  00C1  0F00     R  	mov a,high offset _LC9
 131  00C2  0080     R  	mov _ESP8266_SendCmd_2[1],a
 131  00C3              	fcall _ESP8266_SendCmd
 131  00CA  0080     E  	mov ra,a
 131  00CB  1E00     E  	snz ra
 131  00CC  2800     R  	jmp _L42
 132  00CD              #line 132 "c:\users\ÂäÒ¶\desktop\htproject\down_demo\esp8266.c"
 132  00CD  0FF4        	mov a,-12
ÎÄ¼þ£ºesp8266.c    ±àÒëÆ÷°æ±¾ HGASM 0202 Ò³´Î10

 132  00CE  0080     E  	mov _delay_ms_2[0],a
 132  00CF  0F01        	mov a,1
 132  00D0  0080     E  	mov _delay_ms_2[1],a
 132  00D1              	fcall _delay_ms
 132  00D8  2800     R  	jmp _L40
 132  00D9              _L42:
 134  00D9              #line 134 "c:\users\ÂäÒ¶\desktop\htproject\down_demo\esp8266.c"
 134  00D9  0F00     R  	mov a,low offset _LC0
 134  00DA  0080     R  	mov _ESP8266_SendCmd_2[2],a
 134  00DB  0F00     R  	mov a,high offset _LC0
 134  00DC  0080     R  	mov _ESP8266_SendCmd_2[3],a
 134  00DD  0F00     R  	mov a,low offset _LC10
 134  00DE  0080     R  	mov _ESP8266_SendCmd_2[0],a
 134  00DF  0F00     R  	mov a,high offset _LC10
 134  00E0  0080     R  	mov _ESP8266_SendCmd_2[1],a
 134  00E1              	fcall _ESP8266_SendCmd
 134  00E8  0080     E  	mov ra,a
 134  00E9  1E00     E  	snz ra
 134  00EA  2800     R  	jmp _L44
 135  00EB              #line 135 "c:\users\ÂäÒ¶\desktop\htproject\down_demo\esp8266.c"
 135  00EB  0FF4        	mov a,-12
 135  00EC  0080     E  	mov _delay_ms_2[0],a
 135  00ED  0F01        	mov a,1
 135  00EE  0080     E  	mov _delay_ms_2[1],a
 135  00EF              	fcall _delay_ms
 135  00F6  2800     R  	jmp _L42
 135  00F7              _L44:
 137  00F7              #line 137 "c:\users\ÂäÒ¶\desktop\htproject\down_demo\esp8266.c"
 137  00F7  0F00     R  	mov a,low offset _LC0
 137  00F8  0080     R  	mov _ESP8266_SendCmd_2[2],a
 137  00F9  0F00     R  	mov a,high offset _LC0
 137  00FA  0080     R  	mov _ESP8266_SendCmd_2[3],a
 137  00FB  0F00     R  	mov a,low offset _LC11
 137  00FC  0080     R  	mov _ESP8266_SendCmd_2[0],a
 137  00FD  0F00     R  	mov a,high offset _LC11
 137  00FE  0080     R  	mov _ESP8266_SendCmd_2[1],a
 137  00FF              	fcall _ESP8266_SendCmd
 137  0106  0080     E  	mov ra,a
 137  0107  1E00     E  	snz ra
 137  0108  2800     R  	jmp _L46
 138  0109              #line 138 "c:\users\ÂäÒ¶\desktop\htproject\down_demo\esp8266.c"
 138  0109  0FF4        	mov a,-12
 138  010A  0080     E  	mov _delay_ms_2[0],a
 138  010B  0F01        	mov a,1
 138  010C  0080     E  	mov _delay_ms_2[1],a
 138  010D              	fcall _delay_ms
 138  0114  2800     R  	jmp _L44
 138  0115              _L46:
 140  0115              #line 140 "c:\users\ÂäÒ¶\desktop\htproject\down_demo\esp8266.c"
 140  0115  0F00     R  	mov a,low offset _LC0
 140  0116  0080     R  	mov _ESP8266_SendCmd_2[2],a
 140  0117  0F00     R  	mov a,high offset _LC0
 140  0118  0080     R  	mov _ESP8266_SendCmd_2[3],a
 140  0119  0F00     R  	mov a,low offset _LC12
 140  011A  0080     R  	mov _ESP8266_SendCmd_2[0],a
 140  011B  0F00     R  	mov a,high offset _LC12
 140  011C  0080     R  	mov _ESP8266_SendCmd_2[1],a
 140  011D              	fcall _ESP8266_SendCmd
 143  0124              #line 143 "c:\users\ÂäÒ¶\desktop\htproject\down_demo\esp8266.c"
 143  0124              	fcall _ESP8266_Clear
ÎÄ¼þ£ºesp8266.c    ±àÒëÆ÷°æ±¾ HGASM 0202 Ò³´Î11

 143  012B  0003        	ret
 143  012C              _ESP8266_Init endp
 143  012C              #line 143 "c:\users\ÂäÒ¶\desktop\htproject\down_demo\esp8266.c"
 143  012C              #pragma debug scope 1 1
 143  012C              ___intc0 equ [16]
 143  012C              ___mfi5 equ [56]
 143  012C              public _UART0
 143  012C              #pragma debug scope 7 1
 148  012C              #line 148 "c:\users\ÂäÒ¶\desktop\htproject\down_demo\esp8266.c"
 148  012C              rombank 0 @UART0_code
 148  0000              @UART0_code .section at 60 'code'
 148  0000  0080     E  	mov r1,a
 148  0001  070B        	mov a,bp
 148  0002  1F0B        	clr bp
 148  0003  2800     R  	jmp _UART0
 148  0004              ROMBANK 0 _UART0
 148  0004              #pragma debug scope 1 1
 148  0004              @dummy60 endp
 148  0004              #pragma debug scope 8 1
 148  0000              _UART0 .section 'code'
 148  0000              _UART0 proc
 148  0000  0080     E  	mov r2,a
 148  0001  070A        	mov a, status
 148  0002  0080     E  	mov r3,a
 148  0003  0703        	mov a,mp
 148  0004  0080     E  	mov r4,a
 148  0005  0704        	mov a,sbp
 148  0006  0080     E  	mov r5,a
 148  0007  0707        	mov a,tblp
 148  0008  0080     E  	mov r6,a
 148  0009  0709        	mov a,tbhp
 148  000A  0080     E  	mov r7,a
 149  000B              #line 149 "c:\users\ÂäÒ¶\desktop\htproject\down_demo\esp8266.c"
 149  000B  3410        	clr [16].0
 151  000C              #line 151 "c:\users\ÂäÒ¶\desktop\htproject\down_demo\esp8266.c"
 151  000C  0F0A        	mov a,10
 151  000D  0080     E  	mov _get_buff_2[2],a
 151  000E  0F00     R  	mov a,low offset _esp8266_buf
 151  000F  0080     E  	mov _get_buff_2[0],a
 151  0010  0F00     R  	mov a,high offset _esp8266_buf
 151  0011  0080     E  	mov _get_buff_2[1],a
 151  0012              	fcall _get_buff
 153  0019              #line 153 "c:\users\ÂäÒ¶\desktop\htproject\down_demo\esp8266.c"
 153  0019  3638        	clr [56].4
 154  001A              #line 154 "c:\users\ÂäÒ¶\desktop\htproject\down_demo\esp8266.c"
 154  001A  3010        	set [16].0
 154  001B  0700     E  	mov a,r2
 154  001C  008B        	mov bp,a
 154  001D  0700     E  	mov a,r3
 154  001E  008A        	mov status,a
 154  001F  0700     E  	mov a,r4
 154  0020  0083        	mov mp,a
 154  0021  0700     E  	mov a,r5
 154  0022  0084        	mov sbp,a
 154  0023  0700     E  	mov a,r6
 154  0024  0087        	mov tblp,a
 154  0025  0700     E  	mov a,r7
 154  0026  0089        	mov tbhp,a
 154  0027  1D05        	tabrdc acc
 154  0028  0700     E  	mov a,r1
ÎÄ¼þ£ºesp8266.c    ±àÒëÆ÷°æ±¾ HGASM 0202 Ò³´Î12

 154  0029  0004        	reti
 154  002A              _UART0 endp
 154  002A              
 154  002A              #line 154 "c:\users\ÂäÒ¶\desktop\htproject\down_demo\esp8266.c"
 154  002A              #pragma debug scope 1 1
 154  002A              public _ptrIPD
 154  0000              @HCCINIT	.section 'data'
  70  0000              #line 70 "c:\users\ÂäÒ¶\desktop\htproject\down_demo\esp8266.c"
  70  0000              @HCCINIT_ptrIPD .section 'data'
  70  0000              _ptrIPD label byte
  70  0000              #pragma debug pointer 44 7 1
  70  0000              #pragma debug pointer 44 7 1
  70  0000              #pragma debug variable 44 1 _ptrIPD "ptrIPD"
  70  0000              	db 0
  70  0000              @ROMDATA_BASE .section inpage 'code'
  70  0000              	db 0
  70  0001              @HCCINIT_ptrIPD .section 'data'
  70  0001              	db 0
  70  0001              @ROMDATA_BASE .section inpage 'code'
  70  0001              	db 0
  70  0002              @HCCINIT_ptrIPD .section 'data'
  70  0002              public _esp8266_cntPre
  14  0002              #line 14 "c:\users\ÂäÒ¶\desktop\htproject\down_demo\esp8266.c"
  14  0000              @HCCINIT_esp8266_cntPre .section 'data'
  14  0000              _esp8266_cntPre label byte
  14  0000              #pragma debug variable 10 1 _esp8266_cntPre "esp8266_cntPre"
  14  0000              	db 0
  14  0001              @ROMDATA_BASE .section inpage 'code'
  14  0001              	db 0
  14  0001              @HCCINIT_esp8266_cntPre .section 'data'
  14  0001              	db 0
  14  0002              @ROMDATA_BASE .section inpage 'code'
  14  0002              	db 0
  14  0002              @HCCINIT_esp8266_cntPre .section 'data'
  14  0002              public _esp8266_cnt
  14  0002              #line 14 "c:\users\ÂäÒ¶\desktop\htproject\down_demo\esp8266.c"
  14  0000              @HCCINIT_esp8266_cnt .section 'data'
  14  0000              _esp8266_cnt label byte
  14  0000              #pragma debug variable 10 1 _esp8266_cnt "esp8266_cnt"
  14  0000              	db 0
  14  0002              @ROMDATA_BASE .section inpage 'code'
  14  0002              	db 0
  14  0001              @HCCINIT_esp8266_cnt .section 'data'
  14  0001              	db 0
  14  0003              @ROMDATA_BASE .section inpage 'code'
  14  0003              	db 0
  14  0002              @HCCINIT_esp8266_cnt .section 'data'
  13  0002              #line 13 "c:\users\ÂäÒ¶\desktop\htproject\down_demo\esp8266.c"
  13  0002              public _esp8266_buf
  13  0000              @HCCINIT0_esp8266_buf .section 'data'
  13  0000  0080[       _esp8266_buf	db 128 dup(0)
            00
            ]
  13  0080              #pragma debug array 45 7 128 1
  13  0080              #pragma debug array 45 7 128 1
  13  0080              #pragma debug variable 45 1 _esp8266_buf "esp8266_buf"
  13  0080              
  13  0000              @HCCINIT .section 'data'
  13  0000              #pragma debug struct_end
  13  0000              #pragma debug struct_end
ÎÄ¼þ£ºesp8266.c    ±àÒëÆ÷°æ±¾ HGASM 0202 Ò³´Î13

  13  0000              #pragma debug union_end
  13  0000              #pragma debug union_end
  13  0000              #pragma debug variable 47 1 ___intc0 "__intc0" 1
  13  0000              #pragma debug struct_end
  13  0000              #pragma debug struct_end
  13  0000              #pragma debug union_end
  13  0000              #pragma debug union_end
  13  0000              #pragma debug variable 49 1 ___mfi5 "__mfi5" 1
  13  0000              extern r1:byte
  13  0000              extern r2:byte
  13  0000              extern r3:byte
  13  0000              extern r4:byte
  13  0000              extern r5:byte
  13  0000              extern r6:byte
  13  0000              extern r7:byte
  13  0000              extern _memset_2:byte
  13  0000              extern _memset:near
  13  0000              extern _strlen_2:byte
  13  0000              extern _strlen:near
  13  0000              extern _send_buff_2:byte
  13  0000              extern _send_buff:near
  13  0000              extern _strstr_2:byte
  13  0000              extern _strstr:near
  13  0000              extern _delay_ms_2:byte
  13  0000              extern _delay_ms:near
  13  0000              extern _strchr_2:byte
  13  0000              extern _strchr:near
  13  0000              extern _get_buff_2:byte
  13  0000              extern _get_buff:near
  13  0000              
  13  0000              ; 
  13  0000              ; Generated by holtek-gcc v3.19, Thu May 05 14:52:41 2022
  13  0000              ; Rebuild 718
  13  0000              ; end of file


        0 Errors, 0